target datalayout = "e-m:e-p270:32:32-p271:32:32-p272:64:64-i64:64-i128:128-f80:128-n8:16:32:64-S128"
target triple = "x86_64-pc-linux-gnu"

%struct.parser_st_table = type { i8, i8, i8, i32, ptr, i64, ptr, i64, i64, ptr }
%struct.st_features = type { i8, i8, i8, i64 }

; Function Attrs: alwaysinline nounwind
define internal ptr @memset.inline(ptr nonnull %0, i32 %1, i64 %2) #11 {
  %4 = alloca ptr, align 8
  %5 = alloca i32, align 4
  %6 = alloca i64, align 8
  store ptr %0, ptr %4, align 8, !tbaa !49
  store i32 %1, ptr %5, align 4, !tbaa !16
  store i64 %2, ptr %6, align 8, !tbaa !14
  %7 = load ptr, ptr %4, align 8, !tbaa !49
  %8 = load i32, ptr %5, align 4, !tbaa !16
  %9 = load i64, ptr %6, align 8, !tbaa !14
  %10 = load ptr, ptr %4, align 8, !tbaa !49
  %11 = call i64 @llvm.objectsize.i64.p0(ptr %10, i1 false, i1 true, i1 false)
  %12 = call ptr @__memset_chk(ptr noundef %7, i32 noundef %8, i64 noundef %9, i64 noundef %11) #14
  ret ptr %12
}

; Function Attrs: inlinehint nounwind sspstrong uwtable
define internal i64 @bins_size(ptr noundef %0) #3 {
  %2 = alloca ptr, align 8
  store ptr %0, ptr %2, align 8, !tbaa !7
  %3 = load ptr, ptr %2, align 8, !tbaa !7
  %4 = getelementptr inbounds nuw %struct.parser_st_table, ptr %3, i32 0, i32 0
  %5 = load i8, ptr %4, align 8, !tbaa !22
  %6 = zext i8 %5 to i64
  %7 = getelementptr [63 x %struct.st_features], ptr @features, i64 0, i64 %6
  %8 = getelementptr inbounds nuw %struct.st_features, ptr %7, i32 0, i32 3
  %9 = load i64, ptr %8, align 8, !tbaa !31
  %10 = mul i64 %9, 8
  ret i64 %10
}

; Function Attrs: nounwind sspstrong uwtable
define internal void @rebuild_cleanup(ptr noundef %0) #0 {
  %2 = alloca ptr, align 8
  store ptr %0, ptr %2, align 8, !tbaa !7
  %3 = load ptr, ptr %2, align 8, !tbaa !7
  %4 = getelementptr inbounds nuw %struct.parser_st_table, ptr %3, i32 0, i32 7
  store i64 0, ptr %4, align 8, !tbaa !34
  %5 = load ptr, ptr %2, align 8, !tbaa !7
  %6 = getelementptr inbounds nuw %struct.parser_st_table, ptr %5, i32 0, i32 5
  %7 = load i64, ptr %6, align 8, !tbaa !32
  %8 = load ptr, ptr %2, align 8, !tbaa !7
  %9 = getelementptr inbounds nuw %struct.parser_st_table, ptr %8, i32 0, i32 8
  store i64 %7, ptr %9, align 8, !tbaa !33
  %10 = load ptr, ptr %2, align 8, !tbaa !7
  %11 = getelementptr inbounds nuw %struct.parser_st_table, ptr %10, i32 0, i32 3
  %12 = load i32, ptr %11, align 4, !tbaa !30
  %13 = add i32 %12, 1
  store i32 %13, ptr %11, align 4, !tbaa !30
  ret void
}

; Function Attrs: nounwind sspstrong uwtable
define internal void @rebuild_move_table(ptr noundef %0, ptr noundef %1) #0 {
  %3 = alloca ptr, align 8
  %4 = alloca ptr, align 8
  store ptr %0, ptr %3, align 8, !tbaa !7
  store ptr %1, ptr %4, align 8, !tbaa !7
  %5 = load ptr, ptr %3, align 8, !tbaa !7
  %6 = getelementptr inbounds nuw %struct.parser_st_table, ptr %5, i32 0, i32 0
  %7 = load i8, ptr %6, align 8, !tbaa !22
  %8 = load ptr, ptr %4, align 8, !tbaa !7
  %9 = getelementptr inbounds nuw %struct.parser_st_table, ptr %8, i32 0, i32 0
  store i8 %7, ptr %9, align 8, !tbaa !22
  %10 = load ptr, ptr %3, align 8, !tbaa !7
  %11 = getelementptr inbounds nuw %struct.parser_st_table, ptr %10, i32 0, i32 1
  %12 = load i8, ptr %11, align 1, !tbaa !25
  %13 = load ptr, ptr %4, align 8, !tbaa !7
  %14 = getelementptr inbounds nuw %struct.parser_st_table, ptr %13, i32 0, i32 1
  store i8 %12, ptr %14, align 1, !tbaa !25
  %15 = load ptr, ptr %3, align 8, !tbaa !7
  %16 = getelementptr inbounds nuw %struct.parser_st_table, ptr %15, i32 0, i32 2
  %17 = load i8, ptr %16, align 2, !tbaa !27
  %18 = load ptr, ptr %4, align 8, !tbaa !7
  %19 = getelementptr inbounds nuw %struct.parser_st_table, ptr %18, i32 0, i32 2
  store i8 %17, ptr %19, align 2, !tbaa !27
  %20 = load ptr, ptr %4, align 8, !tbaa !7
  %21 = getelementptr inbounds nuw %struct.parser_st_table, ptr %20, i32 0, i32 6
  %22 = load ptr, ptr %21, align 8, !tbaa !28
  call void @free(ptr noundef %22) #14
  %23 = load ptr, ptr %3, align 8, !tbaa !7
  %24 = getelementptr inbounds nuw %struct.parser_st_table, ptr %23, i32 0, i32 6
  %25 = load ptr, ptr %24, align 8, !tbaa !28
  %26 = load ptr, ptr %4, align 8, !tbaa !7
  %27 = getelementptr inbounds nuw %struct.parser_st_table, ptr %26, i32 0, i32 6
  store ptr %25, ptr %27, align 8, !tbaa !28
  %28 = load ptr, ptr %4, align 8, !tbaa !7
  %29 = getelementptr inbounds nuw %struct.parser_st_table, ptr %28, i32 0, i32 9
  %30 = load ptr, ptr %29, align 8, !tbaa !29
  call void @free(ptr noundef %30) #14
  %31 = load ptr, ptr %3, align 8, !tbaa !7
  %32 = getelementptr inbounds nuw %struct.parser_st_table, ptr %31, i32 0, i32 9
  %33 = load ptr, ptr %32, align 8, !tbaa !29
  %34 = load ptr, ptr %4, align 8, !tbaa !7
  %35 = getelementptr inbounds nuw %struct.parser_st_table, ptr %34, i32 0, i32 9
  store ptr %33, ptr %35, align 8, !tbaa !29
  %36 = load ptr, ptr %3, align 8, !tbaa !7
  call void @free(ptr noundef %36) #14
  ret void
}

; Function Attrs: nounwind sspstrong uwtable
define dso_local ptr @rb_parser_st_init_table_with_size(ptr noundef %0, i64 noundef %1) #0 {
  %3 = alloca ptr, align 8
  %4 = alloca ptr, align 8
  %5 = alloca i64, align 8
  %6 = alloca ptr, align 8
  %7 = alloca i32, align 4
  store ptr %0, ptr %4, align 8, !tbaa !12
  store i64 %1, ptr %5, align 8, !tbaa !14
  call void @llvm.lifetime.start.p0(i64 8, ptr %6) #14
  %8 = call noalias ptr @malloc(i64 noundef 56) #15
  store ptr %8, ptr %6, align 8, !tbaa !7
  %9 = load ptr, ptr %6, align 8, !tbaa !7
  %10 = icmp eq ptr %9, null
  br i1 %10, label %11, label %12

11:                                               ; preds = %2
  store ptr null, ptr %3, align 8
  store i32 1, ptr %7, align 4
  br label %22

12:                                               ; preds = %2
  %13 = load ptr, ptr %6, align 8, !tbaa !7
  %14 = load ptr, ptr %4, align 8, !tbaa !12
  %15 = load i64, ptr %5, align 8, !tbaa !14
  %16 = call ptr @rb_parser_st_init_existing_table_with_size(ptr noundef %13, ptr noundef %14, i64 noundef %15)
  %17 = icmp eq ptr %16, null
  br i1 %17, label %18, label %20

18:                                               ; preds = %12
  %19 = load ptr, ptr %6, align 8, !tbaa !7
  call void @free(ptr noundef %19) #14
  store ptr null, ptr %3, align 8
  store i32 1, ptr %7, align 4
  br label %22

20:                                               ; preds = %12
  %21 = load ptr, ptr %6, align 8, !tbaa !7
  store ptr %21, ptr %3, align 8
  store i32 1, ptr %7, align 4
  br label %22

22:                                               ; preds = %20, %18, %11
  call void @llvm.lifetime.end.p0(i64 8, ptr %6) #14
  %23 = load ptr, ptr %3, align 8
  ret ptr %23
}

; Function Attrs: nounwind sspstrong uwtable
define internal void @initialize_bins(ptr noundef %0) #0 {
  %2 = alloca ptr, align 8
  store ptr %0, ptr %2, align 8, !tbaa !7
  %3 = load ptr, ptr %2, align 8, !tbaa !7
  %4 = getelementptr inbounds nuw %struct.parser_st_table, ptr %3, i32 0, i32 6
  %5 = load ptr, ptr %4, align 8, !tbaa !28
  %6 = load ptr, ptr %2, align 8, !tbaa !7
  %7 = call i64 @bins_size(ptr noundef %6)
  %8 = call ptr @memset.inline(ptr noundef %5, i32 noundef 0, i64 noundef %7) #14
  ret void
}

; Function Attrs: nounwind sspstrong uwtable
define internal void @rebuild_table(ptr noundef %0) #0 {
  %2 = alloca ptr, align 8
  %3 = alloca ptr, align 8
  store ptr %0, ptr %2, align 8, !tbaa !7
  %4 = load ptr, ptr %2, align 8, !tbaa !7
  %5 = getelementptr inbounds nuw %struct.parser_st_table, ptr %4, i32 0, i32 5
  %6 = load i64, ptr %5, align 8, !tbaa !32
  %7 = mul i64 2, %6
  %8 = load ptr, ptr %2, align 8, !tbaa !7
  %9 = call i64 @get_allocated_entries(ptr noundef %8)
  %10 = icmp ule i64 %7, %9
  br i1 %10, label %11, label %19

11:                                               ; preds = %1
  %12 = load ptr, ptr %2, align 8, !tbaa !7
  %13 = getelementptr inbounds nuw %struct.parser_st_table, ptr %12, i32 0, i32 5
  %14 = load i64, ptr %13, align 8, !tbaa !32
  %15 = mul i64 4, %14
  %16 = load ptr, ptr %2, align 8, !tbaa !7
  %17 = call i64 @get_allocated_entries(ptr noundef %16)
  %18 = icmp ugt i64 %15, %17
  br i1 %18, label %24, label %19

19:                                               ; preds = %11, %1
  %20 = load ptr, ptr %2, align 8, !tbaa !7
  %21 = getelementptr inbounds nuw %struct.parser_st_table, ptr %20, i32 0, i32 5
  %22 = load i64, ptr %21, align 8, !tbaa !32
  %23 = icmp ult i64 %22, 4
  br i1 %23, label %24, label %36

24:                                               ; preds = %19, %11
  %25 = load ptr, ptr %2, align 8, !tbaa !7
  %26 = getelementptr inbounds nuw %struct.parser_st_table, ptr %25, i32 0, i32 5
  store i64 0, ptr %26, align 8, !tbaa !32
  %27 = load ptr, ptr %2, align 8, !tbaa !7
  %28 = getelementptr inbounds nuw %struct.parser_st_table, ptr %27, i32 0, i32 6
  %29 = load ptr, ptr %28, align 8, !tbaa !28
  %30 = icmp ne ptr %29, null
  br i1 %30, label %31, label %33

31:                                               ; preds = %24
  %32 = load ptr, ptr %2, align 8, !tbaa !7
  call void @initialize_bins(ptr noundef %32)
  br label %33

33:                                               ; preds = %31, %24
  %34 = load ptr, ptr %2, align 8, !tbaa !7
  %35 = load ptr, ptr %2, align 8, !tbaa !7
  call void @rebuild_table_with(ptr noundef %34, ptr noundef %35)
  br label %50

36:                                               ; preds = %19
  call void @llvm.lifetime.start.p0(i64 8, ptr %3) #14
  %37 = load ptr, ptr %2, align 8, !tbaa !7
  %38 = getelementptr inbounds nuw %struct.parser_st_table, ptr %37, i32 0, i32 4
  %39 = load ptr, ptr %38, align 8, !tbaa !18
  %40 = load ptr, ptr %2, align 8, !tbaa !7
  %41 = getelementptr inbounds nuw %struct.parser_st_table, ptr %40, i32 0, i32 5
  %42 = load i64, ptr %41, align 8, !tbaa !32
  %43 = mul i64 2, %42
  %44 = sub i64 %43, 1
  %45 = call ptr @rb_parser_st_init_table_with_size(ptr noundef %39, i64 noundef %44)
  store ptr %45, ptr %3, align 8, !tbaa !7
  %46 = load ptr, ptr %3, align 8, !tbaa !7
  %47 = load ptr, ptr %2, align 8, !tbaa !7
  call void @rebuild_table_with(ptr noundef %46, ptr noundef %47)
  %48 = load ptr, ptr %3, align 8, !tbaa !7
  %49 = load ptr, ptr %2, align 8, !tbaa !7
  call void @rebuild_move_table(ptr noundef %48, ptr noundef %49)
  call void @llvm.lifetime.end.p0(i64 8, ptr %3) #14
  br label %50

50:                                               ; preds = %36, %33
  %51 = load ptr, ptr %2, align 8, !tbaa !7
  call void @rebuild_cleanup(ptr noundef %51)
  ret void
}

; Function Attrs: inlinehint nounwind sspstrong uwtable
define internal i64 @get_allocated_entries(ptr noundef %0) #3 {
  %2 = alloca ptr, align 8
  store ptr %0, ptr %2, align 8, !tbaa !7
  %3 = load ptr, ptr %2, align 8, !tbaa !7
  %4 = getelementptr inbounds nuw %struct.parser_st_table, ptr %3, i32 0, i32 0
  %5 = load i8, ptr %4, align 8, !tbaa !22
  %6 = zext i8 %5 to i32
  %7 = zext i32 %6 to i64
  %8 = shl i64 1, %7
  ret i64 %8
}

; Function Attrs: inlinehint nounwind sspstrong uwtable
define internal void @rebuild_table_if_necessary(ptr noundef %0) #3 {
  %2 = alloca ptr, align 8
  %3 = alloca i64, align 8
  store ptr %0, ptr %2, align 8, !tbaa !7
  call void @llvm.lifetime.start.p0(i64 8, ptr %3) #14
  %4 = load ptr, ptr %2, align 8, !tbaa !7
  %5 = getelementptr inbounds nuw %struct.parser_st_table, ptr %4, i32 0, i32 8
  %6 = load i64, ptr %5, align 8, !tbaa !33
  store i64 %6, ptr %3, align 8, !tbaa !14
  %7 = load i64, ptr %3, align 8, !tbaa !14
  %8 = load ptr, ptr %2, align 8, !tbaa !7
  %9 = call i64 @get_allocated_entries(ptr noundef %8)
  %10 = icmp eq i64 %7, %9
  br i1 %10, label %11, label %13

11:                                               ; preds = %1
  %12 = load ptr, ptr %2, align 8, !tbaa !7
  call void @rebuild_table(ptr noundef %12)
  br label %13

13:                                               ; preds = %11, %1
  call void @llvm.lifetime.end.p0(i64 8, ptr %3) #14
  ret void
}