; Function Attrs: inlinehint nounwind sspstrong uwtable
define internal fastcc void @rebuild_table_if_necessary(ptr noundef captures(none) %0) unnamed_addr #8 {
  %2 = getelementptr inbounds nuw i8, ptr %0, i64 40
  %3 = load i64, ptr %2, align 8, !tbaa !30
  %.val = load i8, ptr %0, align 8, !tbaa !17
  %4 = zext nneg i8 %.val to i64
  %5 = shl nuw i64 1, %4
  %6 = icmp eq i64 %3, %5
  br i1 %6, label %7, label %52

7:                                                ; preds = %1
  %8 = getelementptr inbounds nuw i8, ptr %0, i64 16
  %9 = load i64, ptr %8, align 8, !tbaa !26
  %10 = shl i64 %9, 1
  %.not.i = icmp ule i64 %10, %3
  %11 = shl i64 %9, 2
  %12 = icmp ugt i64 %11, %3
  %or.cond.i = and i1 %.not.i, %12
  %13 = icmp ult i64 %9, 4
  %or.cond22.i = or i1 %13, %or.cond.i
  br i1 %or.cond22.i, label %14, label %22

14:                                               ; preds = %7
  store i64 0, ptr %8, align 8, !tbaa !26
  %15 = getelementptr inbounds nuw i8, ptr %0, i64 24
  %16 = load ptr, ptr %15, align 8, !tbaa !23
  %.not17.i = icmp eq ptr %16, null
  br i1 %.not17.i, label %21, label %17

17:                                               ; preds = %14
  %18 = getelementptr [63 x %struct.st_features], ptr @features, i64 0, i64 %4, i32 3
  %19 = load i64, ptr %18, align 8, !tbaa !24
  %20 = shl i64 %19, 3
  tail call void @llvm.memset.p0.i64(ptr noundef nonnull align 1 %16, i8 noundef 0, i64 noundef %20, i1 noundef false) #25
  br label %21

21:                                               ; preds = %17, %14
  tail call fastcc void @rebuild_table_with(ptr noundef nonnull %0, ptr noundef nonnull %0)
  br label %rebuild_table.exit

22:                                               ; preds = %7
  %23 = getelementptr inbounds nuw i8, ptr %0, i64 8
  %24 = load ptr, ptr %23, align 8, !tbaa !7
  %25 = tail call noalias dereferenceable_or_null(56) ptr @malloc(i64 noundef 56) #24
  %26 = icmp eq ptr %25, null
  br i1 %26, label %rb_parser_st_init_table_with_size.exit.i, label %27

27:                                               ; preds = %22
  %28 = add i64 %10, -1
  %29 = tail call ptr @rb_parser_st_init_existing_table_with_size(ptr noundef nonnull %25, ptr noundef %24, i64 noundef %28)
  %30 = icmp eq ptr %29, null
  br i1 %30, label %31, label %rb_parser_st_init_table_with_size.exit.i

31:                                               ; preds = %27
  tail call void @free(ptr noundef nonnull %25) #25
  br label %rb_parser_st_init_table_with_size.exit.i

rb_parser_st_init_table_with_size.exit.i:         ; preds = %31, %27, %22
  %.0.i.i = phi ptr [ null, %31 ], [ null, %22 ], [ %25, %27 ]
  tail call fastcc void @rebuild_table_with(ptr noundef %.0.i.i, ptr noundef nonnull %0)
  %32 = load i8, ptr %.0.i.i, align 8, !tbaa !17
  store i8 %32, ptr %0, align 8, !tbaa !17
  %33 = getelementptr inbounds nuw i8, ptr %.0.i.i, i64 1
  %34 = load i8, ptr %33, align 1, !tbaa !20
  %35 = getelementptr inbounds nuw i8, ptr %0, i64 1
  store i8 %34, ptr %35, align 1, !tbaa !20
  %36 = getelementptr inbounds nuw i8, ptr %.0.i.i, i64 2
  %37 = load i8, ptr %36, align 2, !tbaa !22
  %38 = getelementptr inbounds nuw i8, ptr %0, i64 2
  store i8 %37, ptr %38, align 2, !tbaa !22
  %39 = getelementptr inbounds nuw i8, ptr %0, i64 24
  %40 = load ptr, ptr %39, align 8, !tbaa !23
  tail call void @free(ptr noundef %40) #25
  %41 = getelementptr inbounds nuw i8, ptr %.0.i.i, i64 24
  %42 = load ptr, ptr %41, align 8, !tbaa !23
  store ptr %42, ptr %39, align 8, !tbaa !23
  %43 = getelementptr inbounds nuw i8, ptr %0, i64 48
  %44 = load ptr, ptr %43, align 8, !tbaa !25
  tail call void @free(ptr noundef %44) #25
  %45 = getelementptr inbounds nuw i8, ptr %.0.i.i, i64 48
  %46 = load ptr, ptr %45, align 8, !tbaa !25
  store ptr %46, ptr %43, align 8, !tbaa !25
  tail call void @free(ptr noundef %.0.i.i) #25
  br label %rebuild_table.exit

rebuild_table.exit:                               ; preds = %21, %rb_parser_st_init_table_with_size.exit.i
  %47 = getelementptr inbounds nuw i8, ptr %0, i64 32
  store i64 0, ptr %47, align 8, !tbaa !31
  %48 = load i64, ptr %8, align 8, !tbaa !26
  store i64 %48, ptr %2, align 8, !tbaa !30
  %49 = getelementptr inbounds nuw i8, ptr %0, i64 4
  %50 = load i32, ptr %49, align 4, !tbaa !27
  %51 = add i32 %50, 1
  store i32 %51, ptr %49, align 4, !tbaa !27
  br label %52

52:                                               ; preds = %rebuild_table.exit, %1
  ret void
}